; Function Attrs: nounwind sspstrong uwtable
define dso_local void @rb_obj_freeze_inline(i64 noundef %0) local_unnamed_addr #0 {
  %2 = icmp eq i64 %0, 0
  %3 = and i64 %0, 7
  %4 = icmp ne i64 %3, 0
  %5 = or i1 %2, %4
  br i1 %5, label %RB_FL_ABLE.exit.thread, label %RB_FL_ABLE.exit

RB_FL_ABLE.exit:                                  ; preds = %1
  %6 = inttoptr i64 %0 to ptr
  %7 = load i64, ptr %6, align 8, !tbaa !28
  %8 = and i64 %7, 31
  %.not15 = icmp eq i64 %8, 27
  br i1 %.not15, label %RB_FL_ABLE.exit.thread, label %rb_type.exit

rb_type.exit:                                     ; preds = %RB_FL_ABLE.exit
  %9 = or i64 %7, 2048
  %10 = icmp eq i64 %8, 5
  %11 = and i64 %9, -49179
  %spec.select = select i1 %10, i64 %11, i64 %9
  store i64 %spec.select, ptr %6, align 8, !tbaa !28
  %12 = tail call ptr @rb_shape_transition_shape_frozen(i64 noundef %0) #27
  %13 = tail call zeroext i1 @rb_shape_obj_too_complex(i64 noundef %0) #27
  br i1 %13, label %22, label %14

14:                                               ; preds = %rb_type.exit
  %15 = getelementptr inbounds nuw i8, ptr %12, i64 24
  %16 = load i8, ptr %15, align 8, !tbaa !39
  %17 = icmp eq i8 %16, 4
  br i1 %17, label %18, label %22

18:                                               ; preds = %14
  %19 = tail call i64 @rb_ivar_count(i64 noundef %0)
  %20 = tail call ptr @rb_st_init_numtable_with_size(i64 noundef %19) #27
  %21 = ptrtoint ptr %20 to i64
  tail call void @rb_ivar_foreach(i64 noundef %0, ptr noundef nonnull @rb_obj_copy_ivs_to_hash_table_i, i64 noundef %21)
  tail call void @rb_obj_convert_to_too_complex(i64 noundef %0, ptr noundef %20)
  br label %22

22:                                               ; preds = %18, %14, %rb_type.exit
  tail call void @rb_shape_set_shape(i64 noundef %0, ptr noundef %12) #27
  %23 = getelementptr inbounds nuw i8, ptr %6, i64 8
  %24 = load i64, ptr %23, align 8, !tbaa !36
  %.not = icmp eq i64 %24, 0
  br i1 %.not, label %RB_FL_ABLE.exit.thread, label %25

25:                                               ; preds = %22
  tail call void @rb_freeze_singleton_class(i64 noundef %0) #27
  br label %RB_FL_ABLE.exit.thread

RB_FL_ABLE.exit.thread:                           ; preds = %1, %22, %25, %RB_FL_ABLE.exit
  ret void
}